; Function Attrs: nounwind uwtable
define hidden void @_glfwSetCursorPosX11(ptr noundef captures(none) initializes((1312, 1320)) %0, double noundef %1, double noundef %2) local_unnamed_addr #0 {
  %4 = fptosi double %1 to i32
  %5 = getelementptr inbounds nuw i8, ptr %0, i64 1312
  store i32 %4, ptr %5, align 8, !tbaa !309
  %6 = fptosi double %2 to i32
  %7 = getelementptr inbounds nuw i8, ptr %0, i64 1316
  store i32 %6, ptr %7, align 4, !tbaa !310
  %8 = load ptr, ptr getelementptr inbounds nuw (i8, ptr @_glfw, i64 142000), align 8, !tbaa !311
  %9 = load ptr, ptr getelementptr inbounds nuw (i8, ptr @_glfw, i64 137840), align 8, !tbaa !93
  %10 = getelementptr inbounds nuw i8, ptr %0, i64 1248
  %11 = load i64, ptr %10, align 8, !tbaa !140
  %12 = tail call i32 %8(ptr noundef %9, i64 noundef 0, i64 noundef %11, i32 noundef 0, i32 noundef 0, i32 noundef 0, i32 noundef 0, i32 noundef %4, i32 noundef %6) #17
  %13 = load ptr, ptr getelementptr inbounds nuw (i8, ptr @_glfw, i64 141544), align 8, !tbaa !261
  %14 = load ptr, ptr getelementptr inbounds nuw (i8, ptr @_glfw, i64 137840), align 8, !tbaa !93
  %15 = tail call i32 %13(ptr noundef %14) #17
  ret void
}